; Function Attrs: nounwind sspstrong uwtable
define dso_local void @ide_start_dma(ptr noundef initializes((704, 708)) %s, ptr noundef %cb) local_unnamed_addr #0 {
entry:
  %io_buffer_index = getelementptr inbounds nuw i8, ptr %s, i64 704
  store i32 0, ptr %io_buffer_index, align 8
  %unit.i = getelementptr inbounds nuw i8, ptr %s, i64 8
  %0 = load i8, ptr %unit.i, align 8
  %1 = load ptr, ptr %s, align 8
  %retry_unit.i = getelementptr inbounds nuw i8, ptr %1, i64 2148
  store i8 %0, ptr %retry_unit.i, align 4
  %select.i.i = getelementptr inbounds nuw i8, ptr %s, i64 664
  %2 = load i8, ptr %select.i.i, align 8
  %conv.i.i = zext i8 %2 to i32
  %and.i.i = and i32 %conv.i.i, 64
  %tobool.not.i.i = icmp eq i32 %and.i.i, 0
  br i1 %tobool.not.i.i, label %if.else33.i.i, label %if.then.i.i

if.then.i.i:                                      ; preds = %entry
  %lba48.i.i = getelementptr inbounds nuw i8, ptr %s, i64 668
  %3 = load i8, ptr %lba48.i.i, align 4
  %tobool1.not.i.i = icmp eq i8 %3, 0
  br i1 %tobool1.not.i.i, label %if.else.i.i, label %if.then2.i.i

if.then2.i.i:                                     ; preds = %if.then.i.i
  %4 = getelementptr i8, ptr %s, i64 662
  %5 = load i16, ptr %4, align 2
  %6 = zext i16 %5 to i64
  %7 = shl nuw nsw i64 %6, 32
  %hob_sector.i.i = getelementptr inbounds nuw i8, ptr %s, i64 661
  %8 = load i8, ptr %hob_sector.i.i, align 1
  %conv6.i.i = zext i8 %8 to i64
  %shl7.i.i = shl nuw nsw i64 %conv6.i.i, 24
  %or8.i.i = or disjoint i64 %shl7.i.i, %7
  %hcyl.i.i = getelementptr inbounds nuw i8, ptr %s, i64 658
  %9 = load i8, ptr %hcyl.i.i, align 2
  %conv9.i.i = zext i8 %9 to i64
  %shl10.i.i = shl nuw nsw i64 %conv9.i.i, 16
  %or11.i.i = or disjoint i64 %or8.i.i, %shl10.i.i
  %lcyl.i.i = getelementptr inbounds nuw i8, ptr %s, i64 657
  %10 = load i8, ptr %lcyl.i.i, align 1
  %conv12.i.i = zext i8 %10 to i64
  %shl13.i.i = shl nuw nsw i64 %conv12.i.i, 8
  %or14.i.i = or disjoint i64 %or11.i.i, %shl13.i.i
  %sector.i.i = getelementptr inbounds nuw i8, ptr %s, i64 656
  %11 = load i8, ptr %sector.i.i, align 8
  %conv15.i.i = zext i8 %11 to i64
  %or16.i.i = or disjoint i64 %or14.i.i, %conv15.i.i
  br label %ide_set_retry.exit

if.else.i.i:                                      ; preds = %if.then.i.i
  %and19.i.i = shl nuw i32 %conv.i.i, 24
  %shl20.i.i = and i32 %and19.i.i, 251658240
  %hcyl21.i.i = getelementptr inbounds nuw i8, ptr %s, i64 658
  %12 = load i8, ptr %hcyl21.i.i, align 2
  %conv22.i.i = zext i8 %12 to i32
  %shl23.i.i = shl nuw nsw i32 %conv22.i.i, 16
  %or24.i.i = or disjoint i32 %shl23.i.i, %shl20.i.i
  %lcyl25.i.i = getelementptr inbounds nuw i8, ptr %s, i64 657
  %13 = load i8, ptr %lcyl25.i.i, align 1
  %conv26.i.i = zext i8 %13 to i32
  %shl27.i.i = shl nuw nsw i32 %conv26.i.i, 8
  %or28.i.i = or disjoint i32 %or24.i.i, %shl27.i.i
  %sector29.i.i = getelementptr inbounds nuw i8, ptr %s, i64 656
  %14 = load i8, ptr %sector29.i.i, align 8
  %conv30.i.i = zext i8 %14 to i32
  %or31.i.i = or disjoint i32 %or28.i.i, %conv30.i.i
  %conv32.i.i = zext nneg i32 %or31.i.i to i64
  br label %ide_set_retry.exit

if.else33.i.i:                                    ; preds = %entry
  %15 = getelementptr i8, ptr %s, i64 657
  %16 = load i16, ptr %15, align 1
  %17 = zext i16 %16 to i32
  %heads.i.i = getelementptr inbounds nuw i8, ptr %s, i64 28
  %18 = load i32, ptr %heads.i.i, align 4
  %mul.i.i = mul i32 %18, %17
  %sectors.i.i = getelementptr inbounds nuw i8, ptr %s, i64 32
  %19 = load i32, ptr %sectors.i.i, align 8
  %and43.i.i = and i32 %conv.i.i, 15
  %mul4019.i.i = add i32 %mul.i.i, %and43.i.i
  %add.i.i = mul i32 %mul4019.i.i, %19
  %sector46.i.i = getelementptr inbounds nuw i8, ptr %s, i64 656
  %20 = load i8, ptr %sector46.i.i, align 8
  %conv47.i.i = zext i8 %20 to i32
  %sub.i.i = add nsw i32 %conv47.i.i, -1
  %add48.i.i = add i32 %sub.i.i, %add.i.i
  %conv49.i.i = sext i32 %add48.i.i to i64
  br label %ide_set_retry.exit

ide_set_retry.exit:                               ; preds = %if.then2.i.i, %if.else.i.i, %if.else33.i.i
  %sector_num.0.i.i = phi i64 [ %or16.i.i, %if.then2.i.i ], [ %conv32.i.i, %if.else.i.i ], [ %conv49.i.i, %if.else33.i.i ]
  %21 = load ptr, ptr %s, align 8
  %retry_sector_num.i = getelementptr inbounds nuw i8, ptr %21, i64 2152
  store i64 %sector_num.0.i.i, ptr %retry_sector_num.i, align 8
  %nsector.i = getelementptr inbounds nuw i8, ptr %s, i64 652
  %22 = load i32, ptr %nsector.i, align 4
  %23 = load ptr, ptr %s, align 8
  %retry_nsector.i = getelementptr inbounds nuw i8, ptr %23, i64 2160
  store i32 %22, ptr %retry_nsector.i, align 8
  %24 = load ptr, ptr %s, align 8
  %dma = getelementptr inbounds nuw i8, ptr %24, i64 2120
  %25 = load ptr, ptr %dma, align 8
  %26 = load ptr, ptr %25, align 8
  %27 = load ptr, ptr %26, align 8
  %tobool.not = icmp eq ptr %27, null
  br i1 %tobool.not, label %if.end, label %if.then

if.then:                                          ; preds = %ide_set_retry.exit
  tail call void %27(ptr noundef nonnull %25, ptr noundef nonnull %s, ptr noundef %cb) #17
  br label %if.end

if.end:                                           ; preds = %if.then, %ide_set_retry.exit
  ret void
}